target datalayout = "e-m:e-p270:32:32-p271:32:32-p272:64:64-i64:64-i128:128-f80:128-n8:16:32:64-S128"
target triple = "x86_64-pc-linux-gnu"

%struct._zval_struct = type { %union._zend_value, %union.anon, %union.anon.2 }
%union._zend_value = type { i64 }
%union.anon = type { i32 }
%union.anon.2 = type { i32 }
%struct._zend_refcounted_h = type { i32, %union.anon.3 }
%union.anon.3 = type { i32 }
%struct.zend_get_gc_buffer = type { ptr, ptr, ptr }
%struct._spl_dllist_object = type { ptr, ptr, i32, i32, ptr, ptr, ptr, ptr, ptr, ptr, %struct._zend_object }
%struct._zend_object = type { %struct._zend_refcounted_h, i32, i32, ptr, ptr, ptr, [1 x %struct._zval_struct] }
%struct._spl_ptr_llist = type { ptr, ptr, i32 }
%struct._spl_ptr_llist_element = type { ptr, ptr, %struct._zval_struct }
%struct.anon.0 = type { i8, i8, %union.anon.1 }
%union.anon.1 = type { i16 }

; Function Attrs: alwaysinline nounwind uwtable
define internal void @zend_get_gc_buffer_use(ptr noundef %0, ptr noundef %1, ptr noundef %2) #6 {
  %4 = alloca ptr, align 8
  %5 = alloca ptr, align 8
  %6 = alloca ptr, align 8
  store ptr %0, ptr %4, align 8, !tbaa !89
  store ptr %1, ptr %5, align 8, !tbaa !126
  store ptr %2, ptr %6, align 8, !tbaa !84
  %7 = load ptr, ptr %4, align 8, !tbaa !89
  %8 = getelementptr inbounds nuw %struct.zend_get_gc_buffer, ptr %7, i32 0, i32 2
  %9 = load ptr, ptr %8, align 8, !tbaa !152
  %10 = load ptr, ptr %5, align 8, !tbaa !126
  store ptr %9, ptr %10, align 8, !tbaa !9
  %11 = load ptr, ptr %4, align 8, !tbaa !89
  %12 = getelementptr inbounds nuw %struct.zend_get_gc_buffer, ptr %11, i32 0, i32 0
  %13 = load ptr, ptr %12, align 8, !tbaa !150
  %14 = load ptr, ptr %4, align 8, !tbaa !89
  %15 = getelementptr inbounds nuw %struct.zend_get_gc_buffer, ptr %14, i32 0, i32 2
  %16 = load ptr, ptr %15, align 8, !tbaa !152
  %17 = ptrtoint ptr %13 to i64
  %18 = ptrtoint ptr %16 to i64
  %19 = sub i64 %17, %18
  %20 = sdiv exact i64 %19, 16
  %21 = trunc i64 %20 to i32
  %22 = load ptr, ptr %6, align 8, !tbaa !84
  store i32 %21, ptr %22, align 4, !tbaa !64
  ret void
}

; Function Attrs: alwaysinline nounwind uwtable
define internal void @zend_get_gc_buffer_add_zval(ptr noundef %0, ptr noundef %1) #6 {
  %3 = alloca ptr, align 8
  %4 = alloca ptr, align 8
  %5 = alloca ptr, align 8
  %6 = alloca ptr, align 8
  %7 = alloca ptr, align 8
  %8 = alloca i32, align 4
  store ptr %0, ptr %3, align 8, !tbaa !89
  store ptr %1, ptr %4, align 8, !tbaa !9
  %9 = load ptr, ptr %4, align 8, !tbaa !9
  %10 = getelementptr inbounds nuw %struct._zval_struct, ptr %9, i32 0, i32 1
  %11 = getelementptr inbounds nuw %struct.anon.0, ptr %10, i32 0, i32 1
  %12 = load i8, ptr %11, align 1, !tbaa !11
  %13 = zext i8 %12 to i32
  %14 = icmp ne i32 %13, 0
  br i1 %14, label %15, label %57

15:                                               ; preds = %2
  %16 = load ptr, ptr %3, align 8, !tbaa !89
  %17 = getelementptr inbounds nuw %struct.zend_get_gc_buffer, ptr %16, i32 0, i32 0
  %18 = load ptr, ptr %17, align 8, !tbaa !150
  %19 = load ptr, ptr %3, align 8, !tbaa !89
  %20 = getelementptr inbounds nuw %struct.zend_get_gc_buffer, ptr %19, i32 0, i32 1
  %21 = load ptr, ptr %20, align 8, !tbaa !151
  %22 = icmp eq ptr %18, %21
  %23 = xor i1 %22, true
  %24 = xor i1 %23, true
  %25 = zext i1 %24 to i32
  %26 = sext i32 %25 to i64
  %27 = call i64 @llvm.expect.i64(i64 %26, i64 0)
  %28 = icmp ne i64 %27, 0
  br i1 %28, label %29, label %31

29:                                               ; preds = %15
  %30 = load ptr, ptr %3, align 8, !tbaa !89
  call void @zend_get_gc_buffer_grow(ptr noundef %30)
  br label %31

31:                                               ; preds = %29, %15
  br label %32

32:                                               ; preds = %31
  call void @llvm.lifetime.start.p0(i64 8, ptr %5) #14
  %33 = load ptr, ptr %3, align 8, !tbaa !89
  %34 = getelementptr inbounds nuw %struct.zend_get_gc_buffer, ptr %33, i32 0, i32 0
  %35 = load ptr, ptr %34, align 8, !tbaa !150
  store ptr %35, ptr %5, align 8, !tbaa !9
  call void @llvm.lifetime.start.p0(i64 8, ptr %6) #14
  %36 = load ptr, ptr %4, align 8, !tbaa !9
  store ptr %36, ptr %6, align 8, !tbaa !9
  call void @llvm.lifetime.start.p0(i64 8, ptr %7) #14
  %37 = load ptr, ptr %6, align 8, !tbaa !9
  %38 = getelementptr inbounds nuw %struct._zval_struct, ptr %37, i32 0, i32 0
  %39 = load ptr, ptr %38, align 8, !tbaa !11
  store ptr %39, ptr %7, align 8, !tbaa !62
  call void @llvm.lifetime.start.p0(i64 4, ptr %8) #14
  %40 = load ptr, ptr %6, align 8, !tbaa !9
  %41 = getelementptr inbounds nuw %struct._zval_struct, ptr %40, i32 0, i32 1
  %42 = load i32, ptr %41, align 8, !tbaa !11
  store i32 %42, ptr %8, align 4, !tbaa !64
  br label %43

43:                                               ; preds = %32
  %44 = load ptr, ptr %7, align 8, !tbaa !62
  %45 = load ptr, ptr %5, align 8, !tbaa !9
  %46 = getelementptr inbounds nuw %struct._zval_struct, ptr %45, i32 0, i32 0
  store ptr %44, ptr %46, align 8, !tbaa !11
  %47 = load i32, ptr %8, align 4, !tbaa !64
  %48 = load ptr, ptr %5, align 8, !tbaa !9
  %49 = getelementptr inbounds nuw %struct._zval_struct, ptr %48, i32 0, i32 1
  store i32 %47, ptr %49, align 8, !tbaa !11
  br label %50

50:                                               ; preds = %43
  br label %51

51:                                               ; preds = %50
  call void @llvm.lifetime.end.p0(i64 4, ptr %8) #14
  call void @llvm.lifetime.end.p0(i64 8, ptr %7) #14
  call void @llvm.lifetime.end.p0(i64 8, ptr %6) #14
  call void @llvm.lifetime.end.p0(i64 8, ptr %5) #14
  br label %52

52:                                               ; preds = %51
  %53 = load ptr, ptr %3, align 8, !tbaa !89
  %54 = getelementptr inbounds nuw %struct.zend_get_gc_buffer, ptr %53, i32 0, i32 0
  %55 = load ptr, ptr %54, align 8, !tbaa !150
  %56 = getelementptr inbounds nuw %struct._zval_struct, ptr %55, i32 1
  store ptr %56, ptr %54, align 8, !tbaa !150
  br label %57

57:                                               ; preds = %52, %2
  ret void
}

; Function Attrs: inlinehint nounwind uwtable
define internal ptr @spl_dllist_from_obj(ptr noundef %0) #4 {
  %2 = alloca ptr, align 8
  store ptr %0, ptr %2, align 8, !tbaa !54
  %3 = load ptr, ptr %2, align 8, !tbaa !54
  %4 = getelementptr inbounds i8, ptr %3, i64 -72
  ret ptr %4
}

; Function Attrs: nounwind uwtable
define internal ptr @spl_dllist_object_get_gc(ptr noundef %0, ptr noundef %1, ptr noundef %2) #0 {
  %4 = alloca ptr, align 8
  %5 = alloca ptr, align 8
  %6 = alloca ptr, align 8
  %7 = alloca ptr, align 8
  %8 = alloca ptr, align 8
  %9 = alloca ptr, align 8
  store ptr %0, ptr %4, align 8, !tbaa !54
  store ptr %1, ptr %5, align 8, !tbaa !126
  store ptr %2, ptr %6, align 8, !tbaa !84
  call void @llvm.lifetime.start.p0(i64 8, ptr %7) #14
  %10 = load ptr, ptr %4, align 8, !tbaa !54
  %11 = call ptr @spl_dllist_from_obj(ptr noundef %10)
  store ptr %11, ptr %7, align 8, !tbaa !45
  call void @llvm.lifetime.start.p0(i64 8, ptr %8) #14
  %12 = call ptr @zend_get_gc_buffer_create()
  store ptr %12, ptr %8, align 8, !tbaa !89
  call void @llvm.lifetime.start.p0(i64 8, ptr %9) #14
  %13 = load ptr, ptr %7, align 8, !tbaa !45
  %14 = getelementptr inbounds nuw %struct._spl_dllist_object, ptr %13, i32 0, i32 0
  %15 = load ptr, ptr %14, align 8, !tbaa !47
  %16 = getelementptr inbounds nuw %struct._spl_ptr_llist, ptr %15, i32 0, i32 0
  %17 = load ptr, ptr %16, align 8, !tbaa !65
  store ptr %17, ptr %9, align 8, !tbaa !56
  br label %18

18:                                               ; preds = %21, %3
  %19 = load ptr, ptr %9, align 8, !tbaa !56
  %20 = icmp ne ptr %19, null
  br i1 %20, label %21, label %28

21:                                               ; preds = %18
  %22 = load ptr, ptr %8, align 8, !tbaa !89
  %23 = load ptr, ptr %9, align 8, !tbaa !56
  %24 = getelementptr inbounds nuw %struct._spl_ptr_llist_element, ptr %23, i32 0, i32 2
  call void @zend_get_gc_buffer_add_zval(ptr noundef %22, ptr noundef %24)
  %25 = load ptr, ptr %9, align 8, !tbaa !56
  %26 = getelementptr inbounds nuw %struct._spl_ptr_llist_element, ptr %25, i32 0, i32 1
  %27 = load ptr, ptr %26, align 8, !tbaa !61
  store ptr %27, ptr %9, align 8, !tbaa !56
  br label %18

28:                                               ; preds = %18
  %29 = load ptr, ptr %8, align 8, !tbaa !89
  %30 = load ptr, ptr %5, align 8, !tbaa !126
  %31 = load ptr, ptr %6, align 8, !tbaa !84
  call void @zend_get_gc_buffer_use(ptr noundef %29, ptr noundef %30, ptr noundef %31)
  %32 = load ptr, ptr %4, align 8, !tbaa !54
  %33 = call ptr @zend_std_get_properties(ptr noundef %32)
  call void @llvm.lifetime.end.p0(i64 8, ptr %9) #14
  call void @llvm.lifetime.end.p0(i64 8, ptr %8) #14
  call void @llvm.lifetime.end.p0(i64 8, ptr %7) #14
  ret ptr %33
}