; Function Attrs: nounwind uwtable
define internal ptr @spl_dllist_object_get_gc(ptr noundef %0, ptr noundef writeonly captures(none) %1, ptr noundef writeonly captures(none) %2) #0 {
  %4 = getelementptr inbounds i8, ptr %0, i64 -72
  %5 = tail call ptr @zend_get_gc_buffer_create() #13
  %6 = load ptr, ptr %4, align 8, !tbaa !43
  %.010 = load ptr, ptr %6, align 8, !tbaa !67
  %.not11 = icmp eq ptr %.010, null
  br i1 %.not11, label %._crit_edge, label %.lr.ph

.lr.ph:                                           ; preds = %3
  %7 = getelementptr inbounds nuw i8, ptr %5, i64 8
  br label %8

8:                                                ; preds = %.lr.ph, %zend_get_gc_buffer_add_zval.exit
  %.012 = phi ptr [ %.010, %.lr.ph ], [ %.0, %zend_get_gc_buffer_add_zval.exit ]
  %9 = getelementptr inbounds nuw i8, ptr %.012, i64 16
  %10 = getelementptr inbounds nuw i8, ptr %.012, i64 24
  %11 = getelementptr inbounds nuw i8, ptr %.012, i64 25
  %12 = load i8, ptr %11, align 1, !tbaa !4
  %.not.i = icmp eq i8 %12, 0
  br i1 %.not.i, label %zend_get_gc_buffer_add_zval.exit, label %13

13:                                               ; preds = %8
  %14 = load ptr, ptr %5, align 8, !tbaa !121
  %15 = load ptr, ptr %7, align 8, !tbaa !122
  %16 = icmp eq ptr %14, %15
  br i1 %16, label %17, label %18, !prof !61

17:                                               ; preds = %13
  tail call void @zend_get_gc_buffer_grow(ptr noundef nonnull %5) #13
  %.pre = load ptr, ptr %5, align 8, !tbaa !121
  br label %18

18:                                               ; preds = %17, %13
  %19 = phi ptr [ %.pre, %17 ], [ %14, %13 ]
  %20 = load ptr, ptr %9, align 8, !tbaa !4
  %21 = load i32, ptr %10, align 8, !tbaa !4
  store ptr %20, ptr %19, align 8, !tbaa !4
  %22 = getelementptr inbounds nuw i8, ptr %19, i64 8
  store i32 %21, ptr %22, align 8, !tbaa !4
  %23 = load ptr, ptr %5, align 8, !tbaa !121
  %24 = getelementptr inbounds nuw i8, ptr %23, i64 16
  store ptr %24, ptr %5, align 8, !tbaa !121
  br label %zend_get_gc_buffer_add_zval.exit

zend_get_gc_buffer_add_zval.exit:                 ; preds = %8, %18
  %25 = getelementptr inbounds nuw i8, ptr %.012, i64 8
  %.0 = load ptr, ptr %25, align 8, !tbaa !67
  %.not = icmp eq ptr %.0, null
  br i1 %.not, label %._crit_edge, label %8

._crit_edge:                                      ; preds = %zend_get_gc_buffer_add_zval.exit, %3
  %26 = getelementptr inbounds nuw i8, ptr %5, i64 16
  %27 = load ptr, ptr %26, align 8, !tbaa !123
  store ptr %27, ptr %1, align 8, !tbaa !50
  %28 = load ptr, ptr %5, align 8, !tbaa !121
  %29 = ptrtoint ptr %28 to i64
  %30 = ptrtoint ptr %27 to i64
  %31 = sub i64 %29, %30
  %32 = lshr exact i64 %31, 4
  %33 = trunc i64 %32 to i32
  store i32 %33, ptr %2, align 4, !tbaa !73
  %34 = tail call ptr @zend_std_get_properties(ptr noundef %0) #13
  ret ptr %34
}